
build/test.elf:     file format elf32-littleriscv


Disassembly of section .init:

00100000 <_start>:
  100000:	c0004137          	lui	sp,0xc0004
  100004:	00010113          	mv	sp,sp
  100008:	7f9000ef          	jal	101000 <main>

Disassembly of section .text:

00101000 <main>:
  101000:	fc010113          	add	sp,sp,-64 # c0003fc0 <_stack_start+0xfc0>
  101004:	02112e23          	sw	ra,60(sp)
  101008:	02812c23          	sw	s0,56(sp)
  10100c:	04010413          	add	s0,sp,64
  101010:	00100793          	li	a5,1
  101014:	fef42623          	sw	a5,-20(s0)
  101018:	00100793          	li	a5,1
  10101c:	fef42423          	sw	a5,-24(s0)
  101020:	000187b7          	lui	a5,0x18
  101024:	6a078513          	add	a0,a5,1696 # 186a0 <_stack_size+0x176a0>
  101028:	224000ef          	jal	10124c <Delay>
  10102c:	fec42583          	lw	a1,-20(s0)
  101030:	20000537          	lui	a0,0x20000
  101034:	0f8000ef          	jal	10112c <Xil_Out32>
  101038:	fc440793          	add	a5,s0,-60
  10103c:	00078613          	mv	a2,a5
  101040:	fe842583          	lw	a1,-24(s0)
  101044:	fec42503          	lw	a0,-20(s0)
  101048:	06c000ef          	jal	1010b4 <adder>
  10104c:	fc442703          	lw	a4,-60(s0)
  101050:	00e00793          	li	a5,14
  101054:	00e7f663          	bgeu	a5,a4,101060 <main+0x60>
  101058:	fc442783          	lw	a5,-60(s0)
  10105c:	00079663          	bnez	a5,101068 <main+0x68>
  101060:	fc442783          	lw	a5,-60(s0)
  101064:	0080006f          	j	10106c <main+0x6c>
  101068:	00000793          	li	a5,0
  10106c:	fef42623          	sw	a5,-20(s0)
  101070:	fc442783          	lw	a5,-60(s0)
  101074:	00078713          	mv	a4,a5
  101078:	fc840793          	add	a5,s0,-56
  10107c:	02000613          	li	a2,32
  101080:	00078593          	mv	a1,a5
  101084:	00070513          	mv	a0,a4
  101088:	2b0000ef          	jal	101338 <itoa>
  10108c:	001027b7          	lui	a5,0x102
  101090:	00078513          	mv	a0,a5
  101094:	14c000ef          	jal	1011e0 <uart_print>
  101098:	fc840793          	add	a5,s0,-56
  10109c:	00078513          	mv	a0,a5
  1010a0:	140000ef          	jal	1011e0 <uart_print>
  1010a4:	004c57b7          	lui	a5,0x4c5
  1010a8:	b4078513          	add	a0,a5,-1216 # 4c4b40 <itoa+0x3c3808>
  1010ac:	1a0000ef          	jal	10124c <Delay>
  1010b0:	f7dff06f          	j	10102c <main+0x2c>

001010b4 <adder>:
  1010b4:	fd010113          	add	sp,sp,-48
  1010b8:	02112623          	sw	ra,44(sp)
  1010bc:	02812423          	sw	s0,40(sp)
  1010c0:	03010413          	add	s0,sp,48
  1010c4:	fca42e23          	sw	a0,-36(s0)
  1010c8:	fcb42c23          	sw	a1,-40(s0)
  1010cc:	fcc42a23          	sw	a2,-44(s0)
  1010d0:	001027b7          	lui	a5,0x102
  1010d4:	00878793          	add	a5,a5,8 # 102008 <itoa+0xcd0>
  1010d8:	fef42623          	sw	a5,-20(s0)
  1010dc:	fec42503          	lw	a0,-20(s0)
  1010e0:	100000ef          	jal	1011e0 <uart_print>
  1010e4:	fdc42583          	lw	a1,-36(s0)
  1010e8:	44a00537          	lui	a0,0x44a00
  1010ec:	040000ef          	jal	10112c <Xil_Out32>
  1010f0:	fd842583          	lw	a1,-40(s0)
  1010f4:	44a007b7          	lui	a5,0x44a00
  1010f8:	00478513          	add	a0,a5,4 # 44a00004 <itoa+0x448feccc>
  1010fc:	030000ef          	jal	10112c <Xil_Out32>
  101100:	44a007b7          	lui	a5,0x44a00
  101104:	01078513          	add	a0,a5,16 # 44a00010 <itoa+0x448fecd8>
  101108:	054000ef          	jal	10115c <Xil_In32>
  10110c:	00050713          	mv	a4,a0
  101110:	fd442783          	lw	a5,-44(s0)
  101114:	00e7a023          	sw	a4,0(a5)
  101118:	00000013          	nop
  10111c:	02c12083          	lw	ra,44(sp)
  101120:	02812403          	lw	s0,40(sp)
  101124:	03010113          	add	sp,sp,48
  101128:	00008067          	ret

0010112c <Xil_Out32>:
  10112c:	fe010113          	add	sp,sp,-32
  101130:	00812e23          	sw	s0,28(sp)
  101134:	02010413          	add	s0,sp,32
  101138:	fea42623          	sw	a0,-20(s0)
  10113c:	feb42423          	sw	a1,-24(s0)
  101140:	fec42783          	lw	a5,-20(s0)
  101144:	fe842703          	lw	a4,-24(s0)
  101148:	00e7a023          	sw	a4,0(a5)
  10114c:	00000013          	nop
  101150:	01c12403          	lw	s0,28(sp)
  101154:	02010113          	add	sp,sp,32
  101158:	00008067          	ret

0010115c <Xil_In32>:
  10115c:	fe010113          	add	sp,sp,-32
  101160:	00812e23          	sw	s0,28(sp)
  101164:	02010413          	add	s0,sp,32
  101168:	fea42623          	sw	a0,-20(s0)
  10116c:	fec42783          	lw	a5,-20(s0)
  101170:	0007a783          	lw	a5,0(a5)
  101174:	00078513          	mv	a0,a5
  101178:	01c12403          	lw	s0,28(sp)
  10117c:	02010113          	add	sp,sp,32
  101180:	00008067          	ret

00101184 <uart_write_byte>:
  101184:	fd010113          	add	sp,sp,-48
  101188:	02812623          	sw	s0,44(sp)
  10118c:	03010413          	add	s0,sp,48
  101190:	00050793          	mv	a5,a0
  101194:	fcf40fa3          	sb	a5,-33(s0)
  101198:	406007b7          	lui	a5,0x40600
  10119c:	00878793          	add	a5,a5,8 # 40600008 <itoa+0x404fecd0>
  1011a0:	fef42623          	sw	a5,-20(s0)
  1011a4:	00000013          	nop
  1011a8:	fec42783          	lw	a5,-20(s0)
  1011ac:	0007a783          	lw	a5,0(a5)
  1011b0:	0047f793          	and	a5,a5,4
  1011b4:	fe078ae3          	beqz	a5,1011a8 <uart_write_byte+0x24>
  1011b8:	406007b7          	lui	a5,0x40600
  1011bc:	00478793          	add	a5,a5,4 # 40600004 <itoa+0x404feccc>
  1011c0:	fef42423          	sw	a5,-24(s0)
  1011c4:	fdf44703          	lbu	a4,-33(s0)
  1011c8:	fe842783          	lw	a5,-24(s0)
  1011cc:	00e7a023          	sw	a4,0(a5)
  1011d0:	00000013          	nop
  1011d4:	02c12403          	lw	s0,44(sp)
  1011d8:	03010113          	add	sp,sp,48
  1011dc:	00008067          	ret

001011e0 <uart_print>:
  1011e0:	fd010113          	add	sp,sp,-48
  1011e4:	02112623          	sw	ra,44(sp)
  1011e8:	02812423          	sw	s0,40(sp)
  1011ec:	03010413          	add	s0,sp,48
  1011f0:	fca42e23          	sw	a0,-36(s0)
  1011f4:	fe042623          	sw	zero,-20(s0)
  1011f8:	0280006f          	j	101220 <uart_print+0x40>
  1011fc:	fec42783          	lw	a5,-20(s0)
  101200:	fdc42703          	lw	a4,-36(s0)
  101204:	00f707b3          	add	a5,a4,a5
  101208:	0007c783          	lbu	a5,0(a5)
  10120c:	00078513          	mv	a0,a5
  101210:	f75ff0ef          	jal	101184 <uart_write_byte>
  101214:	fec42783          	lw	a5,-20(s0)
  101218:	00178793          	add	a5,a5,1
  10121c:	fef42623          	sw	a5,-20(s0)
  101220:	fec42783          	lw	a5,-20(s0)
  101224:	fdc42703          	lw	a4,-36(s0)
  101228:	00f707b3          	add	a5,a4,a5
  10122c:	0007c783          	lbu	a5,0(a5)
  101230:	fc0796e3          	bnez	a5,1011fc <uart_print+0x1c>
  101234:	00000013          	nop
  101238:	00000013          	nop
  10123c:	02c12083          	lw	ra,44(sp)
  101240:	02812403          	lw	s0,40(sp)
  101244:	03010113          	add	sp,sp,48
  101248:	00008067          	ret

0010124c <Delay>:
  10124c:	fd010113          	add	sp,sp,-48
  101250:	02812623          	sw	s0,44(sp)
  101254:	03010413          	add	s0,sp,48
  101258:	fca42e23          	sw	a0,-36(s0)
  10125c:	fe042623          	sw	zero,-20(s0)
  101260:	0100006f          	j	101270 <Delay+0x24>
  101264:	fec42783          	lw	a5,-20(s0)
  101268:	00178793          	add	a5,a5,1
  10126c:	fef42623          	sw	a5,-20(s0)
  101270:	fec42703          	lw	a4,-20(s0)
  101274:	fdc42783          	lw	a5,-36(s0)
  101278:	fef766e3          	bltu	a4,a5,101264 <Delay+0x18>
  10127c:	00000013          	nop
  101280:	00000013          	nop
  101284:	02c12403          	lw	s0,44(sp)
  101288:	03010113          	add	sp,sp,48
  10128c:	00008067          	ret

00101290 <reverse>:
  101290:	fd010113          	add	sp,sp,-48
  101294:	02812623          	sw	s0,44(sp)
  101298:	03010413          	add	s0,sp,48
  10129c:	fca42e23          	sw	a0,-36(s0)
  1012a0:	fcb42c23          	sw	a1,-40(s0)
  1012a4:	fe042623          	sw	zero,-20(s0)
  1012a8:	fd842783          	lw	a5,-40(s0)
  1012ac:	fff78793          	add	a5,a5,-1
  1012b0:	fef42423          	sw	a5,-24(s0)
  1012b4:	0640006f          	j	101318 <reverse+0x88>
  1012b8:	fec42783          	lw	a5,-20(s0)
  1012bc:	fdc42703          	lw	a4,-36(s0)
  1012c0:	00f707b3          	add	a5,a4,a5
  1012c4:	0007c783          	lbu	a5,0(a5)
  1012c8:	fef403a3          	sb	a5,-25(s0)
  1012cc:	fe842783          	lw	a5,-24(s0)
  1012d0:	fdc42703          	lw	a4,-36(s0)
  1012d4:	00f70733          	add	a4,a4,a5
  1012d8:	fec42783          	lw	a5,-20(s0)
  1012dc:	fdc42683          	lw	a3,-36(s0)
  1012e0:	00f687b3          	add	a5,a3,a5
  1012e4:	00074703          	lbu	a4,0(a4)
  1012e8:	00e78023          	sb	a4,0(a5)
  1012ec:	fe842783          	lw	a5,-24(s0)
  1012f0:	fdc42703          	lw	a4,-36(s0)
  1012f4:	00f707b3          	add	a5,a4,a5
  1012f8:	fe744703          	lbu	a4,-25(s0)
  1012fc:	00e78023          	sb	a4,0(a5)
  101300:	fec42783          	lw	a5,-20(s0)
  101304:	00178793          	add	a5,a5,1
  101308:	fef42623          	sw	a5,-20(s0)
  10130c:	fe842783          	lw	a5,-24(s0)
  101310:	fff78793          	add	a5,a5,-1
  101314:	fef42423          	sw	a5,-24(s0)
  101318:	fec42703          	lw	a4,-20(s0)
  10131c:	fe842783          	lw	a5,-24(s0)
  101320:	f8f74ce3          	blt	a4,a5,1012b8 <reverse+0x28>
  101324:	00000013          	nop
  101328:	00000013          	nop
  10132c:	02c12403          	lw	s0,44(sp)
  101330:	03010113          	add	sp,sp,48
  101334:	00008067          	ret

00101338 <itoa>:
  101338:	fd010113          	add	sp,sp,-48
  10133c:	02112623          	sw	ra,44(sp)
  101340:	02812423          	sw	s0,40(sp)
  101344:	03010413          	add	s0,sp,48
  101348:	fca42e23          	sw	a0,-36(s0)
  10134c:	fcb42c23          	sw	a1,-40(s0)
  101350:	fcc42a23          	sw	a2,-44(s0)
  101354:	001027b7          	lui	a5,0x102
  101358:	01c78513          	add	a0,a5,28 # 10201c <itoa+0xce4>
  10135c:	e85ff0ef          	jal	1011e0 <uart_print>
  101360:	fe042623          	sw	zero,-20(s0)
  101364:	fe042423          	sw	zero,-24(s0)
  101368:	fd442703          	lw	a4,-44(s0)
  10136c:	00100793          	li	a5,1
  101370:	00e7ca63          	blt	a5,a4,101384 <itoa+0x4c>
  101374:	fd842783          	lw	a5,-40(s0)
  101378:	00078023          	sb	zero,0(a5)
  10137c:	00100793          	li	a5,1
  101380:	1100006f          	j	101490 <itoa+0x158>
  101384:	fdc42783          	lw	a5,-36(s0)
  101388:	02079e63          	bnez	a5,1013c4 <itoa+0x8c>
  10138c:	fec42783          	lw	a5,-20(s0)
  101390:	00178713          	add	a4,a5,1
  101394:	fee42623          	sw	a4,-20(s0)
  101398:	00078713          	mv	a4,a5
  10139c:	fd842783          	lw	a5,-40(s0)
  1013a0:	00e787b3          	add	a5,a5,a4
  1013a4:	03000713          	li	a4,48
  1013a8:	00e78023          	sb	a4,0(a5)
  1013ac:	fec42783          	lw	a5,-20(s0)
  1013b0:	fd842703          	lw	a4,-40(s0)
  1013b4:	00f707b3          	add	a5,a4,a5
  1013b8:	00078023          	sb	zero,0(a5)
  1013bc:	00000793          	li	a5,0
  1013c0:	0d00006f          	j	101490 <itoa+0x158>
  1013c4:	fdc42783          	lw	a5,-36(s0)
  1013c8:	0607d063          	bgez	a5,101428 <itoa+0xf0>
  1013cc:	00100793          	li	a5,1
  1013d0:	fef42423          	sw	a5,-24(s0)
  1013d4:	00000793          	li	a5,0
  1013d8:	0b80006f          	j	101490 <itoa+0x158>
  1013dc:	fdc42703          	lw	a4,-36(s0)
  1013e0:	00a00793          	li	a5,10
  1013e4:	02f767b3          	rem	a5,a4,a5
  1013e8:	fef42223          	sw	a5,-28(s0)
  1013ec:	fe442783          	lw	a5,-28(s0)
  1013f0:	0ff7f713          	zext.b	a4,a5
  1013f4:	fec42783          	lw	a5,-20(s0)
  1013f8:	00178693          	add	a3,a5,1
  1013fc:	fed42623          	sw	a3,-20(s0)
  101400:	00078693          	mv	a3,a5
  101404:	fd842783          	lw	a5,-40(s0)
  101408:	00d787b3          	add	a5,a5,a3
  10140c:	03070713          	add	a4,a4,48
  101410:	0ff77713          	zext.b	a4,a4
  101414:	00e78023          	sb	a4,0(a5)
  101418:	fdc42703          	lw	a4,-36(s0)
  10141c:	00a00793          	li	a5,10
  101420:	02f747b3          	div	a5,a4,a5
  101424:	fcf42e23          	sw	a5,-36(s0)
  101428:	fdc42783          	lw	a5,-36(s0)
  10142c:	00078e63          	beqz	a5,101448 <itoa+0x110>
  101430:	fd442783          	lw	a5,-44(s0)
  101434:	fff78713          	add	a4,a5,-1
  101438:	fe842783          	lw	a5,-24(s0)
  10143c:	40f707b3          	sub	a5,a4,a5
  101440:	fec42703          	lw	a4,-20(s0)
  101444:	f8f74ce3          	blt	a4,a5,1013dc <itoa+0xa4>
  101448:	fe842783          	lw	a5,-24(s0)
  10144c:	02078263          	beqz	a5,101470 <itoa+0x138>
  101450:	fec42783          	lw	a5,-20(s0)
  101454:	00178713          	add	a4,a5,1
  101458:	fee42623          	sw	a4,-20(s0)
  10145c:	00078713          	mv	a4,a5
  101460:	fd842783          	lw	a5,-40(s0)
  101464:	00e787b3          	add	a5,a5,a4
  101468:	02d00713          	li	a4,45
  10146c:	00e78023          	sb	a4,0(a5)
  101470:	fec42783          	lw	a5,-20(s0)
  101474:	fd842703          	lw	a4,-40(s0)
  101478:	00f707b3          	add	a5,a4,a5
  10147c:	00078023          	sb	zero,0(a5)
  101480:	fec42583          	lw	a1,-20(s0)
  101484:	fd842503          	lw	a0,-40(s0)
  101488:	e09ff0ef          	jal	101290 <reverse>
  10148c:	00000793          	li	a5,0
  101490:	00078513          	mv	a0,a5
  101494:	02c12083          	lw	ra,44(sp)
  101498:	02812403          	lw	s0,40(sp)
  10149c:	03010113          	add	sp,sp,48
  1014a0:	00008067          	ret
