
build/test.elf:     file format elf32-littleriscv


Disassembly of section .init:

00100000 <_start>:
  100000:	c0004137          	lui	sp,0xc0004
  100004:	00010113          	mv	sp,sp
  100008:	7f9000ef          	jal	101000 <main>

Disassembly of section .text:

00101000 <main>:
  101000:	fc010113          	add	sp,sp,-64 # c0003fc0 <_stack_start+0xfc0>
  101004:	02112e23          	sw	ra,60(sp)
  101008:	02812c23          	sw	s0,56(sp)
  10100c:	04010413          	add	s0,sp,64
  101010:	001027b7          	lui	a5,0x102
  101014:	00078793          	mv	a5,a5
  101018:	fef42423          	sw	a5,-24(s0)
  10101c:	00100793          	li	a5,1
  101020:	fef42623          	sw	a5,-20(s0)
  101024:	00100793          	li	a5,1
  101028:	fef42223          	sw	a5,-28(s0)
  10102c:	000187b7          	lui	a5,0x18
  101030:	6a078513          	add	a0,a5,1696 # 186a0 <_stack_size+0x176a0>
  101034:	210000ef          	jal	101244 <Delay>
  101038:	00000593          	li	a1,0
  10103c:	200007b7          	lui	a5,0x20000
  101040:	00478513          	add	a0,a5,4 # 20000004 <itoa+0x1fefecd4>
  101044:	068000ef          	jal	1010ac <Xil_Out32>
  101048:	fe842503          	lw	a0,-24(s0)
  10104c:	114000ef          	jal	101160 <uart_print>
  101050:	fc040793          	add	a5,s0,-64
  101054:	00078613          	mv	a2,a5
  101058:	fe442583          	lw	a1,-28(s0)
  10105c:	fec42503          	lw	a0,-20(s0)
  101060:	16c000ef          	jal	1011cc <adder>
  101064:	fc042703          	lw	a4,-64(s0)
  101068:	00e00793          	li	a5,14
  10106c:	00e7f663          	bgeu	a5,a4,101078 <main+0x78>
  101070:	fc042783          	lw	a5,-64(s0)
  101074:	00079663          	bnez	a5,101080 <main+0x80>
  101078:	fc042783          	lw	a5,-64(s0)
  10107c:	0080006f          	j	101084 <main+0x84>
  101080:	00000793          	li	a5,0
  101084:	fef42623          	sw	a5,-20(s0)
  101088:	fec42583          	lw	a1,-20(s0)
  10108c:	20000537          	lui	a0,0x20000
  101090:	01c000ef          	jal	1010ac <Xil_Out32>
  101094:	00a00513          	li	a0,10
  101098:	06c000ef          	jal	101104 <uart_write_byte>
  10109c:	009897b7          	lui	a5,0x989
  1010a0:	68078513          	add	a0,a5,1664 # 989680 <itoa+0x888350>
  1010a4:	1a0000ef          	jal	101244 <Delay>
  1010a8:	f91ff06f          	j	101038 <main+0x38>

001010ac <Xil_Out32>:
  1010ac:	fe010113          	add	sp,sp,-32
  1010b0:	00812e23          	sw	s0,28(sp)
  1010b4:	02010413          	add	s0,sp,32
  1010b8:	fea42623          	sw	a0,-20(s0)
  1010bc:	feb42423          	sw	a1,-24(s0)
  1010c0:	fec42783          	lw	a5,-20(s0)
  1010c4:	fe842703          	lw	a4,-24(s0)
  1010c8:	00e7a023          	sw	a4,0(a5)
  1010cc:	00000013          	nop
  1010d0:	01c12403          	lw	s0,28(sp)
  1010d4:	02010113          	add	sp,sp,32
  1010d8:	00008067          	ret

001010dc <Xil_In32>:
  1010dc:	fe010113          	add	sp,sp,-32
  1010e0:	00812e23          	sw	s0,28(sp)
  1010e4:	02010413          	add	s0,sp,32
  1010e8:	fea42623          	sw	a0,-20(s0)
  1010ec:	fec42783          	lw	a5,-20(s0)
  1010f0:	0007a783          	lw	a5,0(a5)
  1010f4:	00078513          	mv	a0,a5
  1010f8:	01c12403          	lw	s0,28(sp)
  1010fc:	02010113          	add	sp,sp,32
  101100:	00008067          	ret

00101104 <uart_write_byte>:
  101104:	fd010113          	add	sp,sp,-48
  101108:	02812623          	sw	s0,44(sp)
  10110c:	03010413          	add	s0,sp,48
  101110:	00050793          	mv	a5,a0
  101114:	fcf40fa3          	sb	a5,-33(s0)
  101118:	406007b7          	lui	a5,0x40600
  10111c:	00878793          	add	a5,a5,8 # 40600008 <itoa+0x404fecd8>
  101120:	fef42623          	sw	a5,-20(s0)
  101124:	00000013          	nop
  101128:	fec42783          	lw	a5,-20(s0)
  10112c:	0007a783          	lw	a5,0(a5)
  101130:	0047f793          	and	a5,a5,4
  101134:	fe078ae3          	beqz	a5,101128 <uart_write_byte+0x24>
  101138:	406007b7          	lui	a5,0x40600
  10113c:	00478793          	add	a5,a5,4 # 40600004 <itoa+0x404fecd4>
  101140:	fef42423          	sw	a5,-24(s0)
  101144:	fdf44703          	lbu	a4,-33(s0)
  101148:	fe842783          	lw	a5,-24(s0)
  10114c:	00e7a023          	sw	a4,0(a5)
  101150:	00000013          	nop
  101154:	02c12403          	lw	s0,44(sp)
  101158:	03010113          	add	sp,sp,48
  10115c:	00008067          	ret

00101160 <uart_print>:
  101160:	fd010113          	add	sp,sp,-48
  101164:	02112623          	sw	ra,44(sp)
  101168:	02812423          	sw	s0,40(sp)
  10116c:	03010413          	add	s0,sp,48
  101170:	fca42e23          	sw	a0,-36(s0)
  101174:	fe042623          	sw	zero,-20(s0)
  101178:	0280006f          	j	1011a0 <uart_print+0x40>
  10117c:	fec42783          	lw	a5,-20(s0)
  101180:	fdc42703          	lw	a4,-36(s0)
  101184:	00f707b3          	add	a5,a4,a5
  101188:	0007c783          	lbu	a5,0(a5)
  10118c:	00078513          	mv	a0,a5
  101190:	f75ff0ef          	jal	101104 <uart_write_byte>
  101194:	fec42783          	lw	a5,-20(s0)
  101198:	00178793          	add	a5,a5,1
  10119c:	fef42623          	sw	a5,-20(s0)
  1011a0:	fec42783          	lw	a5,-20(s0)
  1011a4:	fdc42703          	lw	a4,-36(s0)
  1011a8:	00f707b3          	add	a5,a4,a5
  1011ac:	0007c783          	lbu	a5,0(a5)
  1011b0:	fc0796e3          	bnez	a5,10117c <uart_print+0x1c>
  1011b4:	00000013          	nop
  1011b8:	00000013          	nop
  1011bc:	02c12083          	lw	ra,44(sp)
  1011c0:	02812403          	lw	s0,40(sp)
  1011c4:	03010113          	add	sp,sp,48
  1011c8:	00008067          	ret

001011cc <adder>:
  1011cc:	fd010113          	add	sp,sp,-48
  1011d0:	02112623          	sw	ra,44(sp)
  1011d4:	02812423          	sw	s0,40(sp)
  1011d8:	03010413          	add	s0,sp,48
  1011dc:	fca42e23          	sw	a0,-36(s0)
  1011e0:	fcb42c23          	sw	a1,-40(s0)
  1011e4:	fcc42a23          	sw	a2,-44(s0)
  1011e8:	001027b7          	lui	a5,0x102
  1011ec:	00c78793          	add	a5,a5,12 # 10200c <itoa+0xcdc>
  1011f0:	fef42623          	sw	a5,-20(s0)
  1011f4:	fec42503          	lw	a0,-20(s0)
  1011f8:	f69ff0ef          	jal	101160 <uart_print>
  1011fc:	fdc42583          	lw	a1,-36(s0)
  101200:	44a00537          	lui	a0,0x44a00
  101204:	ea9ff0ef          	jal	1010ac <Xil_Out32>
  101208:	fd842583          	lw	a1,-40(s0)
  10120c:	44a007b7          	lui	a5,0x44a00
  101210:	00478513          	add	a0,a5,4 # 44a00004 <itoa+0x448fecd4>
  101214:	e99ff0ef          	jal	1010ac <Xil_Out32>
  101218:	44a007b7          	lui	a5,0x44a00
  10121c:	01078513          	add	a0,a5,16 # 44a00010 <itoa+0x448fece0>
  101220:	ebdff0ef          	jal	1010dc <Xil_In32>
  101224:	00050713          	mv	a4,a0
  101228:	fd442783          	lw	a5,-44(s0)
  10122c:	00e7a023          	sw	a4,0(a5)
  101230:	00000013          	nop
  101234:	02c12083          	lw	ra,44(sp)
  101238:	02812403          	lw	s0,40(sp)
  10123c:	03010113          	add	sp,sp,48
  101240:	00008067          	ret

00101244 <Delay>:
  101244:	fd010113          	add	sp,sp,-48
  101248:	02812623          	sw	s0,44(sp)
  10124c:	03010413          	add	s0,sp,48
  101250:	fca42e23          	sw	a0,-36(s0)
  101254:	fe042623          	sw	zero,-20(s0)
  101258:	0100006f          	j	101268 <Delay+0x24>
  10125c:	fec42783          	lw	a5,-20(s0)
  101260:	00178793          	add	a5,a5,1
  101264:	fef42623          	sw	a5,-20(s0)
  101268:	fec42703          	lw	a4,-20(s0)
  10126c:	fdc42783          	lw	a5,-36(s0)
  101270:	fef766e3          	bltu	a4,a5,10125c <Delay+0x18>
  101274:	00000013          	nop
  101278:	00000013          	nop
  10127c:	02c12403          	lw	s0,44(sp)
  101280:	03010113          	add	sp,sp,48
  101284:	00008067          	ret

00101288 <reverse>:
  101288:	fd010113          	add	sp,sp,-48
  10128c:	02812623          	sw	s0,44(sp)
  101290:	03010413          	add	s0,sp,48
  101294:	fca42e23          	sw	a0,-36(s0)
  101298:	fcb42c23          	sw	a1,-40(s0)
  10129c:	fe042623          	sw	zero,-20(s0)
  1012a0:	fd842783          	lw	a5,-40(s0)
  1012a4:	fff78793          	add	a5,a5,-1
  1012a8:	fef42423          	sw	a5,-24(s0)
  1012ac:	0640006f          	j	101310 <reverse+0x88>
  1012b0:	fec42783          	lw	a5,-20(s0)
  1012b4:	fdc42703          	lw	a4,-36(s0)
  1012b8:	00f707b3          	add	a5,a4,a5
  1012bc:	0007c783          	lbu	a5,0(a5)
  1012c0:	fef403a3          	sb	a5,-25(s0)
  1012c4:	fe842783          	lw	a5,-24(s0)
  1012c8:	fdc42703          	lw	a4,-36(s0)
  1012cc:	00f70733          	add	a4,a4,a5
  1012d0:	fec42783          	lw	a5,-20(s0)
  1012d4:	fdc42683          	lw	a3,-36(s0)
  1012d8:	00f687b3          	add	a5,a3,a5
  1012dc:	00074703          	lbu	a4,0(a4)
  1012e0:	00e78023          	sb	a4,0(a5)
  1012e4:	fe842783          	lw	a5,-24(s0)
  1012e8:	fdc42703          	lw	a4,-36(s0)
  1012ec:	00f707b3          	add	a5,a4,a5
  1012f0:	fe744703          	lbu	a4,-25(s0)
  1012f4:	00e78023          	sb	a4,0(a5)
  1012f8:	fec42783          	lw	a5,-20(s0)
  1012fc:	00178793          	add	a5,a5,1
  101300:	fef42623          	sw	a5,-20(s0)
  101304:	fe842783          	lw	a5,-24(s0)
  101308:	fff78793          	add	a5,a5,-1
  10130c:	fef42423          	sw	a5,-24(s0)
  101310:	fec42703          	lw	a4,-20(s0)
  101314:	fe842783          	lw	a5,-24(s0)
  101318:	f8f74ce3          	blt	a4,a5,1012b0 <reverse+0x28>
  10131c:	00000013          	nop
  101320:	00000013          	nop
  101324:	02c12403          	lw	s0,44(sp)
  101328:	03010113          	add	sp,sp,48
  10132c:	00008067          	ret

00101330 <itoa>:
  101330:	fd010113          	add	sp,sp,-48
  101334:	02112623          	sw	ra,44(sp)
  101338:	02812423          	sw	s0,40(sp)
  10133c:	03010413          	add	s0,sp,48
  101340:	fca42e23          	sw	a0,-36(s0)
  101344:	fcb42c23          	sw	a1,-40(s0)
  101348:	fcc42a23          	sw	a2,-44(s0)
  10134c:	fe042623          	sw	zero,-20(s0)
  101350:	fe042423          	sw	zero,-24(s0)
  101354:	fd442703          	lw	a4,-44(s0)
  101358:	00100793          	li	a5,1
  10135c:	00e7ca63          	blt	a5,a4,101370 <itoa+0x40>
  101360:	fd842783          	lw	a5,-40(s0)
  101364:	00078023          	sb	zero,0(a5)
  101368:	00100793          	li	a5,1
  10136c:	1100006f          	j	10147c <itoa+0x14c>
  101370:	fdc42783          	lw	a5,-36(s0)
  101374:	02079e63          	bnez	a5,1013b0 <itoa+0x80>
  101378:	fec42783          	lw	a5,-20(s0)
  10137c:	00178713          	add	a4,a5,1
  101380:	fee42623          	sw	a4,-20(s0)
  101384:	00078713          	mv	a4,a5
  101388:	fd842783          	lw	a5,-40(s0)
  10138c:	00e787b3          	add	a5,a5,a4
  101390:	03000713          	li	a4,48
  101394:	00e78023          	sb	a4,0(a5)
  101398:	fec42783          	lw	a5,-20(s0)
  10139c:	fd842703          	lw	a4,-40(s0)
  1013a0:	00f707b3          	add	a5,a4,a5
  1013a4:	00078023          	sb	zero,0(a5)
  1013a8:	00000793          	li	a5,0
  1013ac:	0d00006f          	j	10147c <itoa+0x14c>
  1013b0:	fdc42783          	lw	a5,-36(s0)
  1013b4:	0607d063          	bgez	a5,101414 <itoa+0xe4>
  1013b8:	00100793          	li	a5,1
  1013bc:	fef42423          	sw	a5,-24(s0)
  1013c0:	00000793          	li	a5,0
  1013c4:	0b80006f          	j	10147c <itoa+0x14c>
  1013c8:	fdc42703          	lw	a4,-36(s0)
  1013cc:	00a00793          	li	a5,10
  1013d0:	02f767b3          	rem	a5,a4,a5
  1013d4:	fef42223          	sw	a5,-28(s0)
  1013d8:	fe442783          	lw	a5,-28(s0)
  1013dc:	0ff7f713          	zext.b	a4,a5
  1013e0:	fec42783          	lw	a5,-20(s0)
  1013e4:	00178693          	add	a3,a5,1
  1013e8:	fed42623          	sw	a3,-20(s0)
  1013ec:	00078693          	mv	a3,a5
  1013f0:	fd842783          	lw	a5,-40(s0)
  1013f4:	00d787b3          	add	a5,a5,a3
  1013f8:	03070713          	add	a4,a4,48
  1013fc:	0ff77713          	zext.b	a4,a4
  101400:	00e78023          	sb	a4,0(a5)
  101404:	fdc42703          	lw	a4,-36(s0)
  101408:	00a00793          	li	a5,10
  10140c:	02f747b3          	div	a5,a4,a5
  101410:	fcf42e23          	sw	a5,-36(s0)
  101414:	fdc42783          	lw	a5,-36(s0)
  101418:	00078e63          	beqz	a5,101434 <itoa+0x104>
  10141c:	fd442783          	lw	a5,-44(s0)
  101420:	fff78713          	add	a4,a5,-1
  101424:	fe842783          	lw	a5,-24(s0)
  101428:	40f707b3          	sub	a5,a4,a5
  10142c:	fec42703          	lw	a4,-20(s0)
  101430:	f8f74ce3          	blt	a4,a5,1013c8 <itoa+0x98>
  101434:	fe842783          	lw	a5,-24(s0)
  101438:	02078263          	beqz	a5,10145c <itoa+0x12c>
  10143c:	fec42783          	lw	a5,-20(s0)
  101440:	00178713          	add	a4,a5,1
  101444:	fee42623          	sw	a4,-20(s0)
  101448:	00078713          	mv	a4,a5
  10144c:	fd842783          	lw	a5,-40(s0)
  101450:	00e787b3          	add	a5,a5,a4
  101454:	02d00713          	li	a4,45
  101458:	00e78023          	sb	a4,0(a5)
  10145c:	fec42783          	lw	a5,-20(s0)
  101460:	fd842703          	lw	a4,-40(s0)
  101464:	00f707b3          	add	a5,a4,a5
  101468:	00078023          	sb	zero,0(a5)
  10146c:	fec42583          	lw	a1,-20(s0)
  101470:	fd842503          	lw	a0,-40(s0)
  101474:	e15ff0ef          	jal	101288 <reverse>
  101478:	00000793          	li	a5,0
  10147c:	00078513          	mv	a0,a5
  101480:	02c12083          	lw	ra,44(sp)
  101484:	02812403          	lw	s0,40(sp)
  101488:	03010113          	add	sp,sp,48
  10148c:	00008067          	ret
